; Function Attrs: mustprogress nofree nounwind uwtable
define internal fastcc noundef nonnull ptr @_ZN4llvm16itanium_demangle22AbstractManglingParserINS0_14ManglingParserIN12_GLOBAL__N_116DefaultAllocatorEEES4_E4makeINS0_11SpecialNameEJRA31_KcRPNS0_4NodeEEEESD_DpOT0_(ptr nocapture noundef nonnull align 16 dereferenceable(4928) %0, ptr nocapture noundef nonnull readonly align 8 dereferenceable(8) %1) unnamed_addr #12 align 2 {
  %3 = getelementptr inbounds i8, ptr %0, i64 4912
  %4 = load ptr, ptr %3, align 16
  %5 = getelementptr inbounds nuw i8, ptr %4, i64 8
  %6 = load i64, ptr %5, align 8
  %7 = add i64 %6, -4032
  %8 = icmp ult i64 %7, -4080
  br i1 %8, label %9, label %_ZN12_GLOBAL__N_116DefaultAllocator8makeNodeIN4llvm16itanium_demangle11SpecialNameEJRA31_KcRPNS3_4NodeEEEEPT_DpOT0_.exit

9:                                                ; preds = %2
  %10 = tail call noalias dereferenceable_or_null(4096) ptr @malloc(i64 noundef 4096) #23
  %11 = icmp eq ptr %10, null
  br i1 %11, label %12, label %_ZN12_GLOBAL__N_120BumpPointerAllocator4growEv.exit.i.i

12:                                               ; preds = %9
  tail call void @_ZSt9terminatev() #22
  unreachable

_ZN12_GLOBAL__N_120BumpPointerAllocator4growEv.exit.i.i: ; preds = %9
  store ptr %4, ptr %10, align 8
  %13 = getelementptr inbounds nuw i8, ptr %10, i64 8
  store i64 0, ptr %13, align 8
  store ptr %10, ptr %3, align 16
  br label %_ZN12_GLOBAL__N_116DefaultAllocator8makeNodeIN4llvm16itanium_demangle11SpecialNameEJRA31_KcRPNS3_4NodeEEEEPT_DpOT0_.exit

_ZN12_GLOBAL__N_116DefaultAllocator8makeNodeIN4llvm16itanium_demangle11SpecialNameEJRA31_KcRPNS3_4NodeEEEEPT_DpOT0_.exit: ; preds = %2, %_ZN12_GLOBAL__N_120BumpPointerAllocator4growEv.exit.i.i
  %14 = phi i64 [ 0, %_ZN12_GLOBAL__N_120BumpPointerAllocator4growEv.exit.i.i ], [ %6, %2 ]
  %15 = phi ptr [ %10, %_ZN12_GLOBAL__N_120BumpPointerAllocator4growEv.exit.i.i ], [ %4, %2 ]
  %16 = getelementptr inbounds nuw i8, ptr %15, i64 8
  %17 = add nsw i64 %14, 48
  store i64 %17, ptr %16, align 8
  %18 = load ptr, ptr %3, align 16
  %19 = getelementptr inbounds i8, ptr %18, i64 16
  %20 = getelementptr inbounds nuw i8, ptr %18, i64 8
  %21 = load i64, ptr %20, align 8
  %22 = getelementptr inbounds i8, ptr %19, i64 %21
  %23 = getelementptr inbounds i8, ptr %22, i64 -48
  %24 = load ptr, ptr %1, align 8
  %25 = getelementptr inbounds i8, ptr %22, i64 -40
  store i8 21, ptr %25, align 8
  %26 = getelementptr inbounds i8, ptr %22, i64 -39
  %27 = load i16, ptr %26, align 1
  %28 = and i16 %27, -4096
  %29 = or disjoint i16 %28, 1344
  store i16 %29, ptr %26, align 1
  store ptr getelementptr inbounds inrange(-16, 72) (i8, ptr @_ZTVN4llvm16itanium_demangle11SpecialNameE, i64 16), ptr %23, align 8
  %30 = getelementptr inbounds i8, ptr %22, i64 -32
  store i64 30, ptr %30, align 8
  %.sroa.2.0..sroa_idx.i.i = getelementptr inbounds i8, ptr %22, i64 -24
  store ptr @.str.12, ptr %.sroa.2.0..sroa_idx.i.i, align 8
  %31 = getelementptr inbounds i8, ptr %22, i64 -16
  store ptr %24, ptr %31, align 8
  ret ptr %23
}